; Function Attrs: nounwind uwtable
define internal ptr @_curses_panel_top_panel(ptr readnone captures(none) %0, ptr readnone captures(none) %1) #0 {
  %3 = load ptr, ptr @PyCurses_API, align 8, !tbaa !16
  %4 = getelementptr i8, ptr %3, i64 16
  %5 = load ptr, ptr %4, align 8, !tbaa !16
  %6 = tail call i32 %5() #4
  %.not.i = icmp eq i32 %6, 0
  br i1 %.not.i, label %_curses_panel_top_panel_impl.exit, label %7

7:                                                ; preds = %2
  %8 = tail call ptr @panel_below(ptr noundef null) #4
  %9 = icmp eq ptr %8, null
  br i1 %9, label %_curses_panel_top_panel_impl.exit, label %10

10:                                               ; preds = %7
  %11 = load ptr, ptr @lop, align 8, !tbaa !17
  br label %12

12:                                               ; preds = %16, %10
  %.0.i.i = phi ptr [ %11, %10 ], [ %18, %16 ]
  %13 = load ptr, ptr %.0.i.i, align 8, !tbaa !19
  %14 = getelementptr inbounds nuw i8, ptr %13, i64 16
  %15 = load ptr, ptr %14, align 8, !tbaa !21
  %.not.i.i = icmp eq ptr %15, %8
  br i1 %.not.i.i, label %find_po.exit.i, label %16

16:                                               ; preds = %12
  %17 = getelementptr inbounds nuw i8, ptr %.0.i.i, i64 8
  %18 = load ptr, ptr %17, align 8, !tbaa !24
  %19 = icmp eq ptr %18, null
  br i1 %19, label %20, label %12, !llvm.loop !25

20:                                               ; preds = %16
  %21 = load ptr, ptr @PyExc_RuntimeError, align 8, !tbaa !13
  tail call void @PyErr_SetString(ptr noundef %21, ptr noundef nonnull @.str.8) #4
  br label %_curses_panel_top_panel_impl.exit

find_po.exit.i:                                   ; preds = %12
  %22 = load i32, ptr %13, align 8, !tbaa !14
  %23 = icmp slt i32 %22, 0
  br i1 %23, label %_curses_panel_top_panel_impl.exit, label %24

24:                                               ; preds = %find_po.exit.i
  %25 = add nuw i32 %22, 1
  store i32 %25, ptr %13, align 8, !tbaa !14
  br label %_curses_panel_top_panel_impl.exit

_curses_panel_top_panel_impl.exit:                ; preds = %2, %7, %20, %find_po.exit.i, %24
  %.0.i = phi ptr [ null, %20 ], [ null, %2 ], [ @_Py_NoneStruct, %7 ], [ %13, %find_po.exit.i ], [ %13, %24 ]
  ret ptr %.0.i
}